target datalayout = "e-m:e-p270:32:32-p271:32:32-p272:64:64-i64:64-i128:128-f80:128-n8:16:32:64-S128"
target triple = "x86_64-pc-linux-gnu"

@.str.14 = private unnamed_addr constant [33 x i8] c"traverse_to: Invalid arguments!\0A\00", align 1
@.str.15 = private unnamed_addr constant [68 x i8] c"traverse_to: Failed to get copy of directory path to be tokenized!\0A\00", align 1
@.str.16 = private unnamed_addr constant [2 x i8] c"/\00", align 1
@.str.17 = private unnamed_addr constant [62 x i8] c"traverse_to: tokenize of target directory returned 0 tokens!\0A\00", align 1
@.str.18 = private unnamed_addr constant [64 x i8] c"traverse_to: Failed to open file descriptor for '/' directory.\0A\00", align 1
@.str.19 = private unnamed_addr constant [29 x i8] c"traverse_to: Failed open %s\0A\00", align 1
@.str.20 = private unnamed_addr constant [48 x i8] c"traverse_to: Handle opened for '%s' directory.\0A\00", align 1

; Function Attrs: nounwind uwtable
define internal i32 @traverse_to(ptr noundef %0, i1 noundef zeroext %1, ptr noundef %2) #0 {
  %4 = alloca ptr, align 8
  %5 = alloca i8, align 1
  %6 = alloca ptr, align 8
  %7 = alloca i32, align 4
  %8 = alloca i64, align 8
  %9 = alloca [2048 x ptr], align 16
  %10 = alloca i64, align 8
  %11 = alloca ptr, align 8
  %12 = alloca i32, align 4
  %13 = alloca i32, align 4
  store ptr %0, ptr %4, align 8
  %14 = zext i1 %1 to i8
  store i8 %14, ptr %5, align 1
  store ptr %2, ptr %6, align 8
  store i32 -1, ptr %7, align 4
  store ptr null, ptr %11, align 8
  store i32 -1, ptr %12, align 4
  store i32 -1, ptr %13, align 4
  %15 = load ptr, ptr %4, align 8
  %16 = icmp eq ptr null, %15
  br i1 %16, label %20, label %17

17:                                               ; preds = %3
  %18 = load ptr, ptr %6, align 8
  %19 = icmp eq ptr null, %18
  br i1 %19, label %20, label %22

20:                                               ; preds = %17, %3
  %21 = call i32 (i32, ptr, ...) @logg(i32 noundef 0, ptr noundef @.str.14)
  br label %96

22:                                               ; preds = %17
  %23 = load ptr, ptr %4, align 8
  %24 = call noalias ptr @strdup(ptr noundef %23) #7
  store ptr %24, ptr %11, align 8
  %25 = load ptr, ptr %11, align 8
  %26 = icmp eq ptr null, %25
  br i1 %26, label %27, label %29

27:                                               ; preds = %22
  %28 = call i32 (i32, ptr, ...) @logg(i32 noundef 0, ptr noundef @.str.15)
  br label %96

29:                                               ; preds = %22
  %30 = load ptr, ptr %11, align 8
  %31 = load i8, ptr @.str.16, align 1
  %32 = getelementptr inbounds [2048 x ptr], ptr %9, i64 0, i64 0
  %33 = call i64 @cli_strtokenize(ptr noundef %30, i8 noundef signext %31, i64 noundef 2048, ptr noundef %32)
  store i64 %33, ptr %8, align 8
  %34 = load i64, ptr %8, align 8
  %35 = icmp eq i64 0, %34
  br i1 %35, label %36, label %38

36:                                               ; preds = %29
  %37 = call i32 (i32, ptr, ...) @logg(i32 noundef 0, ptr noundef @.str.17)
  br label %96

38:                                               ; preds = %29
  %39 = call i32 (ptr, i32, ...) @open(ptr noundef @.str.16, i32 noundef 131072)
  store i32 %39, ptr %12, align 4
  %40 = load i32, ptr %12, align 4
  %41 = icmp eq i32 -1, %40
  br i1 %41, label %42, label %44

42:                                               ; preds = %38
  %43 = call i32 (i32, ptr, ...) @logg(i32 noundef 0, ptr noundef @.str.18)
  br label %96

44:                                               ; preds = %38
  %45 = load i8, ptr %5, align 1
  %46 = trunc i8 %45 to i1
  %47 = zext i1 %46 to i32
  %48 = icmp eq i32 1, %47
  br i1 %48, label %49, label %52

49:                                               ; preds = %44
  %50 = load i64, ptr %8, align 8
  %51 = sub i64 %50, 1
  store i64 %51, ptr %8, align 8
  br label %52

52:                                               ; preds = %49, %44
  %53 = load i64, ptr %8, align 8
  %54 = icmp eq i64 0, %53
  br i1 %54, label %55, label %57

55:                                               ; preds = %52
  %56 = call i32 (i32, ptr, ...) @logg(i32 noundef 0, ptr noundef @.str.15)
  br label %96

57:                                               ; preds = %52
  store i64 0, ptr %10, align 8
  br label %58

58:                                               ; preds = %90, %57
  %59 = load i64, ptr %10, align 8
  %60 = load i64, ptr %8, align 8
  %61 = icmp ult i64 %59, %60
  br i1 %61, label %62, label %93

62:                                               ; preds = %58
  %63 = load i64, ptr %10, align 8
  %64 = getelementptr inbounds [2048 x ptr], ptr %9, i64 0, i64 %63
  %65 = load ptr, ptr %64, align 8
  %66 = call i64 @strlen(ptr noundef %65) #6
  %67 = icmp eq i64 0, %66
  br i1 %67, label %68, label %69

68:                                               ; preds = %62
  br label %90

69:                                               ; preds = %62
  %70 = load i32, ptr %12, align 4
  %71 = load i64, ptr %10, align 8
  %72 = getelementptr inbounds [2048 x ptr], ptr %9, i64 0, i64 %71
  %73 = load ptr, ptr %72, align 8
  %74 = call i32 (i32, ptr, i32, ...) @openat(i32 noundef %70, ptr noundef %73, i32 noundef 131072)
  store i32 %74, ptr %13, align 4
  %75 = load i32, ptr %13, align 4
  %76 = icmp eq i32 -1, %75
  br i1 %76, label %77, label %82

77:                                               ; preds = %69
  %78 = load i64, ptr %10, align 8
  %79 = getelementptr inbounds [2048 x ptr], ptr %9, i64 0, i64 %78
  %80 = load ptr, ptr %79, align 8
  %81 = call i32 (i32, ptr, ...) @logg(i32 noundef 0, ptr noundef @.str.19, ptr noundef %80)
  br label %96

82:                                               ; preds = %69
  %83 = load i32, ptr %12, align 4
  %84 = call i32 @close(i32 noundef %83)
  %85 = load i32, ptr %13, align 4
  store i32 %85, ptr %12, align 4
  store i32 -1, ptr %13, align 4
  %86 = load i64, ptr %10, align 8
  %87 = getelementptr inbounds [2048 x ptr], ptr %9, i64 0, i64 %86
  %88 = load ptr, ptr %87, align 8
  %89 = call i32 (i32, ptr, ...) @logg(i32 noundef 2, ptr noundef @.str.20, ptr noundef %88)
  br label %90

90:                                               ; preds = %82, %68
  %91 = load i64, ptr %10, align 8
  %92 = add i64 %91, 1
  store i64 %92, ptr %10, align 8
  br label %58

93:                                               ; preds = %58
  store i32 0, ptr %7, align 4
  %94 = load i32, ptr %12, align 4
  %95 = load ptr, ptr %6, align 8
  store i32 %94, ptr %95, align 4
  br label %96

96:                                               ; preds = %93, %77, %55, %42, %36, %27, %20
  %97 = load i32, ptr %7, align 4
  %98 = icmp eq i32 -1, %97
  br i1 %98, label %99, label %105

99:                                               ; preds = %96
  %100 = load i32, ptr %12, align 4
  %101 = icmp ne i32 -1, %100
  br i1 %101, label %102, label %105

102:                                              ; preds = %99
  %103 = load i32, ptr %12, align 4
  %104 = call i32 @close(i32 noundef %103)
  br label %105

105:                                              ; preds = %102, %99, %96
  %106 = load ptr, ptr %11, align 8
  %107 = icmp ne ptr null, %106
  br i1 %107, label %108, label %110

108:                                              ; preds = %105
  %109 = load ptr, ptr %11, align 8
  call void @free(ptr noundef %109) #7
  br label %110

110:                                              ; preds = %108, %105
  %111 = load i32, ptr %7, align 4
  ret i32 %111
}