; Function Attrs: nounwind uwtable
define internal fastcc noundef i32 @traverse_to(ptr nocapture noundef readonly %0, ptr noundef writeonly %1) unnamed_addr #0 {
  %3 = alloca [2048 x ptr], align 16
  %4 = icmp eq ptr %1, null
  br i1 %4, label %5, label %7

5:                                                ; preds = %2
  %6 = tail call i32 (i32, ptr, ...) @logg(i32 noundef 0, ptr noundef nonnull @.str.14) #11
  br label %.thread.thread

7:                                                ; preds = %2
  %8 = tail call noalias ptr @strdup(ptr noundef %0) #11
  %9 = icmp eq ptr %8, null
  br i1 %9, label %10, label %12

10:                                               ; preds = %7
  %11 = tail call i32 (i32, ptr, ...) @logg(i32 noundef 0, ptr noundef nonnull @.str.15) #11
  br label %.thread.thread

12:                                               ; preds = %7
  %13 = call i64 @cli_strtokenize(ptr noundef nonnull %8, i8 noundef signext 47, i64 noundef 2048, ptr noundef nonnull %3) #11
  %14 = icmp eq i64 %13, 0
  br i1 %14, label %15, label %17

15:                                               ; preds = %12
  %16 = call i32 (i32, ptr, ...) @logg(i32 noundef 0, ptr noundef nonnull @.str.17) #11
  br label %.thread.thread54

17:                                               ; preds = %12
  %18 = call i32 (ptr, i32, ...) @open(ptr noundef nonnull @.str.16, i32 noundef 131072) #11
  %19 = icmp eq i32 %18, -1
  br i1 %19, label %20, label %22

20:                                               ; preds = %17
  %21 = call i32 (i32, ptr, ...) @logg(i32 noundef 0, ptr noundef nonnull @.str.18) #11
  br label %.thread.thread54

22:                                               ; preds = %17
  %23 = add i64 %13, -1
  %24 = icmp eq i64 %23, 0
  br i1 %24, label %.thread, label %.preheader

.thread:                                          ; preds = %22
  %25 = call i32 (i32, ptr, ...) @logg(i32 noundef 0, ptr noundef nonnull @.str.15) #11
  br label %42

.preheader:                                       ; preds = %22, %36
  %.063 = phi i32 [ %.1, %36 ], [ %18, %22 ]
  %.03262 = phi i64 [ %37, %36 ], [ 0, %22 ]
  %26 = getelementptr inbounds [2048 x ptr], ptr %3, i64 0, i64 %.03262
  %27 = load ptr, ptr %26, align 8
  %char0 = load i8, ptr %27, align 1
  %28 = icmp eq i8 %char0, 0
  br i1 %28, label %36, label %29

29:                                               ; preds = %.preheader
  %30 = call i32 (i32, ptr, i32, ...) @openat(i32 noundef %.063, ptr noundef nonnull %27, i32 noundef 131072) #11
  %31 = icmp eq i32 %30, -1
  br i1 %31, label %39, label %32

32:                                               ; preds = %29
  %33 = call i32 @close(i32 noundef %.063) #11
  %34 = load ptr, ptr %26, align 8
  %35 = call i32 (i32, ptr, ...) @logg(i32 noundef 2, ptr noundef nonnull @.str.20, ptr noundef %34) #11
  br label %36

36:                                               ; preds = %.preheader, %32
  %.1 = phi i32 [ %.063, %.preheader ], [ %30, %32 ]
  %37 = add nuw i64 %.03262, 1
  %exitcond.not = icmp eq i64 %37, %23
  br i1 %exitcond.not, label %38, label %.preheader

38:                                               ; preds = %36
  store i32 %.1, ptr %1, align 4
  br label %.thread.thread54

39:                                               ; preds = %29
  %40 = load ptr, ptr %26, align 8
  %41 = call i32 (i32, ptr, ...) @logg(i32 noundef 0, ptr noundef nonnull @.str.19, ptr noundef %40) #11
  %.not60 = icmp eq i32 %.063, -1
  br i1 %.not60, label %.thread.thread54, label %42

42:                                               ; preds = %.thread, %39
  %.268 = phi i32 [ %18, %.thread ], [ %.063, %39 ]
  %43 = call i32 @close(i32 noundef %.268) #11
  br label %.thread.thread54

.thread.thread54:                                 ; preds = %39, %42, %38, %15, %20
  %.0344759 = phi i32 [ -1, %20 ], [ -1, %15 ], [ -1, %42 ], [ -1, %39 ], [ 0, %38 ]
  call void @free(ptr noundef nonnull %8) #11
  br label %.thread.thread

.thread.thread:                                   ; preds = %5, %10, %.thread.thread54
  %.0344752 = phi i32 [ %.0344759, %.thread.thread54 ], [ -1, %10 ], [ -1, %5 ]
  ret i32 %.0344752
}